target datalayout = "e-m:e-p270:32:32-p271:32:32-p272:64:64-i64:64-i128:128-f80:128-n8:16:32:64-S128"
target triple = "x86_64-pc-linux-gnu"

@.str.11 = private unnamed_addr constant [48 x i8] c"CEX verification FAILED for obj %d and obj %d.\0A\00", align 1

; Function Attrs: nounwind uwtable
define void @Cec2_ManVerify(ptr noundef %0, i32 noundef %1, i32 noundef %2, i32 noundef %3, ptr noundef %4) #0 {
  %6 = alloca ptr, align 8
  %7 = alloca i32, align 4
  %8 = alloca i32, align 4
  %9 = alloca i32, align 4
  %10 = alloca ptr, align 8
  %11 = alloca i32, align 4
  %12 = alloca i32, align 4
  store ptr %0, ptr %6, align 8
  store i32 %1, ptr %7, align 4
  store i32 %2, ptr %8, align 4
  store i32 %3, ptr %9, align 4
  store ptr %4, ptr %10, align 8
  %13 = load ptr, ptr %6, align 8
  call void @Gia_ManIncrementTravId(ptr noundef %13)
  %14 = load ptr, ptr %6, align 8
  %15 = load i32, ptr %7, align 4
  %16 = load ptr, ptr %10, align 8
  %17 = call i32 @Cec2_ManVerify_rec(ptr noundef %14, i32 noundef %15, ptr noundef %16)
  store i32 %17, ptr %11, align 4
  %18 = load ptr, ptr %6, align 8
  %19 = load i32, ptr %8, align 4
  %20 = load ptr, ptr %10, align 8
  %21 = call i32 @Cec2_ManVerify_rec(ptr noundef %18, i32 noundef %19, ptr noundef %20)
  store i32 %21, ptr %12, align 4
  %22 = load i32, ptr %11, align 4
  %23 = load i32, ptr %12, align 4
  %24 = xor i32 %22, %23
  %25 = load i32, ptr %9, align 4
  %26 = icmp eq i32 %24, %25
  br i1 %26, label %27, label %31

27:                                               ; preds = %5
  %28 = load i32, ptr %7, align 4
  %29 = load i32, ptr %8, align 4
  %30 = call i32 (ptr, ...) @printf(ptr noundef @.str.11, i32 noundef %28, i32 noundef %29)
  br label %31

31:                                               ; preds = %27, %5
  ret void
}