; Function Attrs: nounwind uwtable
define void @Cec2_ManVerify(ptr noundef %0, i32 noundef %1, i32 noundef %2, i32 noundef %3, ptr noundef %4) local_unnamed_addr #2 {
  tail call void @Gia_ManIncrementTravId(ptr noundef %0) #21
  %6 = tail call i32 @Cec2_ManVerify_rec(ptr noundef %0, i32 noundef %1, ptr noundef %4)
  %7 = tail call i32 @Cec2_ManVerify_rec(ptr noundef %0, i32 noundef %2, ptr noundef %4)
  %8 = xor i32 %7, %6
  %9 = icmp eq i32 %8, %3
  br i1 %9, label %10, label %12

10:                                               ; preds = %5
  %11 = tail call i32 (ptr, ...) @printf(ptr noundef nonnull dereferenceable(1) @.str.11, i32 noundef %1, i32 noundef %2)
  br label %12

12:                                               ; preds = %10, %5
  ret void
}